; Function Attrs: mustprogress sspstrong uwtable
define internal noundef ptr @_ZL13py_an_unbuildP8py_annoy(ptr noundef readonly captures(none) %0) #2 {
  %2 = alloca ptr, align 8
  %3 = getelementptr inbounds nuw i8, ptr %0, i64 24
  %4 = load ptr, ptr %3, align 8, !tbaa !25
  %.not = icmp eq ptr %4, null
  br i1 %.not, label %18, label %5

5:                                                ; preds = %1
  call void @llvm.lifetime.start.p0(i64 8, ptr nonnull %2) #33
  %6 = load ptr, ptr %4, align 8, !tbaa !28
  %7 = getelementptr inbounds nuw i8, ptr %6, i64 32
  %8 = load ptr, ptr %7, align 8
  %9 = call noundef zeroext i1 %8(ptr noundef nonnull align 8 dereferenceable(8) %4, ptr noundef nonnull %2)
  br i1 %9, label %14, label %10

10:                                               ; preds = %5
  %11 = load ptr, ptr @PyExc_Exception, align 8, !tbaa !30
  %12 = load ptr, ptr %2, align 8, !tbaa !41
  call void @PyErr_SetString(ptr noundef %11, ptr noundef %12)
  %13 = load ptr, ptr %2, align 8, !tbaa !41
  call void @free(ptr noundef %13) #33
  br label %17

14:                                               ; preds = %5
  %15 = load i64, ptr @_Py_TrueStruct, align 8, !tbaa !21
  %16 = add i64 %15, 1
  store i64 %16, ptr @_Py_TrueStruct, align 8, !tbaa !21
  br label %17

17:                                               ; preds = %14, %10
  %.1 = phi ptr [ @_Py_TrueStruct, %14 ], [ null, %10 ]
  call void @llvm.lifetime.end.p0(i64 8, ptr nonnull %2) #33
  br label %18

18:                                               ; preds = %1, %17
  %.0 = phi ptr [ %.1, %17 ], [ null, %1 ]
  ret ptr %.0
}